target datalayout = "e-m:e-p270:32:32-p271:32:32-p272:64:64-i64:64-i128:128-f80:128-n8:16:32:64-S128"
target triple = "x86_64-pc-linux-gnu"

%struct.lua_State = type { i8, i8, i8, i8, i8, i8, i8, ptr, ptr, ptr, ptr, ptr, ptr, ptr, ptr, i32, i32, i16, i16, i32, ptr, ptr, ptr, ptr, ptr }
%struct.lua_TValue = type { %union.Value, [1 x i32], i32 }
%union.Value = type { ptr }
%struct.TString = type { i8, i8, i8, i16, ptr, i32, i32, [1 x i8] }
%struct.luaL_Strbuf = type { ptr, ptr, ptr, ptr, [512 x i8] }
%struct.global_State = type { %struct.stringtable, ptr, ptr, i8, i8, ptr, ptr, ptr, i64, i64, i32, i32, i32, [40 x ptr], [40 x ptr], ptr, ptr, ptr, [256 x i64], ptr, %struct.UpVal, [11 x ptr], [11 x ptr], [21 x ptr], %struct.lua_TValue, %struct.lua_TValue, i32, ptr, i64, [4 x i64], %struct.lua_Callbacks, %struct.lua_ExecutionCallbacks, [128 x ptr], [128 x ptr], [128 x ptr], %struct.GCStats }
%struct.stringtable = type { ptr, i32, i32 }
%struct.UpVal = type { i8, i8, i8, i8, ptr, %union.anon }
%union.anon = type { %struct.anon }
%struct.anon = type { ptr, ptr, ptr }
%struct.lua_Callbacks = type { ptr, ptr, ptr, ptr, ptr, ptr, ptr, ptr, ptr }
%struct.lua_ExecutionCallbacks = type { ptr, ptr, ptr, ptr, ptr, ptr, ptr }
%struct.GCStats = type { [32 x i32], i32, i32, i64, i64, i64, double, double, double }

; Function Attrs: mustprogress uwtable
define dso_local void @_Z15luaL_pushresultP11luaL_Strbuf(ptr noundef %0) #3 {
  %2 = alloca ptr, align 8
  %3 = alloca ptr, align 8
  %4 = alloca ptr, align 8
  %5 = alloca ptr, align 8
  %6 = alloca ptr, align 8
  store ptr %0, ptr %2, align 8
  %7 = load ptr, ptr %2, align 8
  %8 = getelementptr inbounds %struct.luaL_Strbuf, ptr %7, i32 0, i32 2
  %9 = load ptr, ptr %8, align 8
  store ptr %9, ptr %3, align 8
  %10 = load ptr, ptr %2, align 8
  %11 = getelementptr inbounds %struct.luaL_Strbuf, ptr %10, i32 0, i32 3
  %12 = load ptr, ptr %11, align 8
  store ptr %12, ptr %4, align 8
  %13 = load ptr, ptr %4, align 8
  %14 = icmp ne ptr %13, null
  br i1 %14, label %15, label %75

15:                                               ; preds = %1
  %16 = load ptr, ptr %3, align 8
  %17 = getelementptr inbounds %struct.lua_State, ptr %16, i32 0, i32 9
  %18 = load ptr, ptr %17, align 8
  %19 = getelementptr inbounds %struct.global_State, ptr %18, i32 0, i32 9
  %20 = load i64, ptr %19, align 8
  %21 = load ptr, ptr %3, align 8
  %22 = getelementptr inbounds %struct.lua_State, ptr %21, i32 0, i32 9
  %23 = load ptr, ptr %22, align 8
  %24 = getelementptr inbounds %struct.global_State, ptr %23, i32 0, i32 8
  %25 = load i64, ptr %24, align 8
  %26 = icmp uge i64 %20, %25
  br i1 %26, label %27, label %30

27:                                               ; preds = %15
  %28 = load ptr, ptr %3, align 8
  %29 = call noundef i64 @_Z9luaC_stepP9lua_Stateb(ptr noundef %28, i1 noundef zeroext true)
  br label %31

30:                                               ; preds = %15
  br label %31

31:                                               ; preds = %30, %27
  %32 = load ptr, ptr %2, align 8
  %33 = getelementptr inbounds %struct.luaL_Strbuf, ptr %32, i32 0, i32 0
  %34 = load ptr, ptr %33, align 8
  %35 = load ptr, ptr %2, align 8
  %36 = getelementptr inbounds %struct.luaL_Strbuf, ptr %35, i32 0, i32 1
  %37 = load ptr, ptr %36, align 8
  %38 = icmp eq ptr %34, %37
  br i1 %38, label %39, label %51

39:                                               ; preds = %31
  %40 = load ptr, ptr %3, align 8
  %41 = getelementptr inbounds %struct.lua_State, ptr %40, i32 0, i32 7
  %42 = load ptr, ptr %41, align 8
  %43 = getelementptr inbounds %struct.lua_TValue, ptr %42, i64 -1
  store ptr %43, ptr %5, align 8
  %44 = load ptr, ptr %3, align 8
  %45 = load ptr, ptr %4, align 8
  %46 = call noundef ptr @_Z14luaS_buffinishP9lua_StateP7TString(ptr noundef %44, ptr noundef %45)
  %47 = load ptr, ptr %5, align 8
  %48 = getelementptr inbounds %struct.lua_TValue, ptr %47, i32 0, i32 0
  store ptr %46, ptr %48, align 8
  %49 = load ptr, ptr %5, align 8
  %50 = getelementptr inbounds %struct.lua_TValue, ptr %49, i32 0, i32 2
  store i32 5, ptr %50, align 4
  br label %74

51:                                               ; preds = %31
  %52 = load ptr, ptr %3, align 8
  %53 = getelementptr inbounds %struct.lua_State, ptr %52, i32 0, i32 7
  %54 = load ptr, ptr %53, align 8
  %55 = getelementptr inbounds %struct.lua_TValue, ptr %54, i64 -1
  store ptr %55, ptr %6, align 8
  %56 = load ptr, ptr %3, align 8
  %57 = load ptr, ptr %4, align 8
  %58 = getelementptr inbounds %struct.TString, ptr %57, i32 0, i32 7
  %59 = getelementptr inbounds [1 x i8], ptr %58, i64 0, i64 0
  %60 = load ptr, ptr %2, align 8
  %61 = getelementptr inbounds %struct.luaL_Strbuf, ptr %60, i32 0, i32 0
  %62 = load ptr, ptr %61, align 8
  %63 = load ptr, ptr %4, align 8
  %64 = getelementptr inbounds %struct.TString, ptr %63, i32 0, i32 7
  %65 = getelementptr inbounds [1 x i8], ptr %64, i64 0, i64 0
  %66 = ptrtoint ptr %62 to i64
  %67 = ptrtoint ptr %65 to i64
  %68 = sub i64 %66, %67
  %69 = call noundef ptr @_Z12luaS_newlstrP9lua_StatePKcm(ptr noundef %56, ptr noundef %59, i64 noundef %68)
  %70 = load ptr, ptr %6, align 8
  %71 = getelementptr inbounds %struct.lua_TValue, ptr %70, i32 0, i32 0
  store ptr %69, ptr %71, align 8
  %72 = load ptr, ptr %6, align 8
  %73 = getelementptr inbounds %struct.lua_TValue, ptr %72, i32 0, i32 2
  store i32 5, ptr %73, align 4
  br label %74

74:                                               ; preds = %51, %39
  br label %89

75:                                               ; preds = %1
  %76 = load ptr, ptr %3, align 8
  %77 = load ptr, ptr %2, align 8
  %78 = getelementptr inbounds %struct.luaL_Strbuf, ptr %77, i32 0, i32 4
  %79 = getelementptr inbounds [512 x i8], ptr %78, i64 0, i64 0
  %80 = load ptr, ptr %2, align 8
  %81 = getelementptr inbounds %struct.luaL_Strbuf, ptr %80, i32 0, i32 0
  %82 = load ptr, ptr %81, align 8
  %83 = load ptr, ptr %2, align 8
  %84 = getelementptr inbounds %struct.luaL_Strbuf, ptr %83, i32 0, i32 4
  %85 = getelementptr inbounds [512 x i8], ptr %84, i64 0, i64 0
  %86 = ptrtoint ptr %82 to i64
  %87 = ptrtoint ptr %85 to i64
  %88 = sub i64 %86, %87
  call void @_Z15lua_pushlstringP9lua_StatePKcm(ptr noundef %76, ptr noundef %79, i64 noundef %88)
  br label %89

89:                                               ; preds = %75, %74
  ret void
}

; Function Attrs: mustprogress uwtable
define dso_local void @_Z19luaL_pushresultsizeP11luaL_Strbufm(ptr noundef %0, i64 noundef %1) #3 {
  %3 = alloca ptr, align 8
  %4 = alloca i64, align 8
  store ptr %0, ptr %3, align 8
  store i64 %1, ptr %4, align 8
  %5 = load i64, ptr %4, align 8
  %6 = load ptr, ptr %3, align 8
  %7 = getelementptr inbounds %struct.luaL_Strbuf, ptr %6, i32 0, i32 0
  %8 = load ptr, ptr %7, align 8
  %9 = getelementptr inbounds i8, ptr %8, i64 %5
  store ptr %9, ptr %7, align 8
  %10 = load ptr, ptr %3, align 8
  call void @_Z15luaL_pushresultP11luaL_Strbuf(ptr noundef %10)
  ret void
}