; Function Attrs: mustprogress uwtable
define dso_local void @_Z19luaL_pushresultsizeP11luaL_Strbufm(ptr noundef %0, i64 noundef %1) local_unnamed_addr #2 {
  %3 = load ptr, ptr %0, align 8
  %4 = getelementptr inbounds i8, ptr %3, i64 %1
  store ptr %4, ptr %0, align 8
  %5 = getelementptr inbounds i8, ptr %0, i64 16
  %6 = load ptr, ptr %5, align 8
  %7 = getelementptr inbounds i8, ptr %0, i64 24
  %8 = load ptr, ptr %7, align 8
  %.not.i = icmp eq ptr %8, null
  br i1 %.not.i, label %36, label %9

9:                                                ; preds = %2
  %10 = getelementptr inbounds i8, ptr %6, i64 24
  %11 = load ptr, ptr %10, align 8
  %12 = getelementptr inbounds i8, ptr %11, i64 72
  %13 = load i64, ptr %12, align 8
  %14 = getelementptr inbounds i8, ptr %11, i64 64
  %15 = load i64, ptr %14, align 8
  %.not25.i = icmp ult i64 %13, %15
  br i1 %.not25.i, label %18, label %16

16:                                               ; preds = %9
  %17 = tail call noundef i64 @_Z9luaC_stepP9lua_Stateb(ptr noundef nonnull %6, i1 noundef zeroext true)
  %.pre = load ptr, ptr %0, align 8
  br label %18

18:                                               ; preds = %16, %9
  %19 = phi ptr [ %.pre, %16 ], [ %4, %9 ]
  %20 = getelementptr inbounds i8, ptr %0, i64 8
  %21 = load ptr, ptr %20, align 8
  %22 = icmp eq ptr %19, %21
  %23 = getelementptr inbounds i8, ptr %6, i64 8
  %24 = load ptr, ptr %23, align 8
  %25 = getelementptr inbounds i8, ptr %24, i64 -16
  br i1 %22, label %26, label %29

26:                                               ; preds = %18
  %27 = tail call noundef ptr @_Z14luaS_buffinishP9lua_StateP7TString(ptr noundef nonnull %6, ptr noundef nonnull %8)
  store ptr %27, ptr %25, align 8
  %28 = getelementptr inbounds i8, ptr %24, i64 -4
  store i32 5, ptr %28, align 4
  br label %_Z15luaL_pushresultP11luaL_Strbuf.exit

29:                                               ; preds = %18
  %30 = getelementptr inbounds i8, ptr %8, i64 24
  %31 = ptrtoint ptr %19 to i64
  %32 = ptrtoint ptr %30 to i64
  %33 = sub i64 %31, %32
  %34 = tail call noundef ptr @_Z12luaS_newlstrP9lua_StatePKcm(ptr noundef nonnull %6, ptr noundef nonnull %30, i64 noundef %33)
  store ptr %34, ptr %25, align 8
  %35 = getelementptr inbounds i8, ptr %24, i64 -4
  store i32 5, ptr %35, align 4
  br label %_Z15luaL_pushresultP11luaL_Strbuf.exit

36:                                               ; preds = %2
  %37 = getelementptr inbounds i8, ptr %0, i64 32
  %38 = ptrtoint ptr %4 to i64
  %39 = ptrtoint ptr %37 to i64
  %40 = sub i64 %38, %39
  tail call void @_Z15lua_pushlstringP9lua_StatePKcm(ptr noundef %6, ptr noundef nonnull %37, i64 noundef %40)
  br label %_Z15luaL_pushresultP11luaL_Strbuf.exit

_Z15luaL_pushresultP11luaL_Strbuf.exit:           ; preds = %26, %29, %36
  ret void
}